; Function Attrs: mustprogress uwtable
define internal void @_ZN12_GLOBAL__N_118SynthMicrochipPass11clear_flagsEv(ptr noundef nonnull align 8 dereferenceable(362) %0) unnamed_addr #5 align 2 personality ptr @__gxx_personality_v0 {
  %2 = getelementptr inbounds nuw i8, ptr %0, i64 184
  %3 = getelementptr inbounds nuw i8, ptr %0, i64 192
  %4 = load i64, ptr %3, align 8, !tbaa !16
  %5 = tail call noundef nonnull align 8 dereferenceable(32) ptr @_ZNSt7__cxx1112basic_stringIcSt11char_traitsIcESaIcEE10_M_replaceEmmPKcm(ptr noundef nonnull align 8 dereferenceable(32) %2, i64 noundef 0, i64 noundef %4, ptr noundef nonnull @.str.50, i64 noundef 9)
  %6 = getelementptr inbounds nuw i8, ptr %0, i64 216
  %7 = getelementptr inbounds nuw i8, ptr %0, i64 224
  store i64 0, ptr %7, align 8, !tbaa !16
  %8 = load ptr, ptr %6, align 8, !tbaa !9
  store i8 0, ptr %8, align 1, !tbaa !17
  %9 = getelementptr inbounds nuw i8, ptr %0, i64 248
  %10 = getelementptr inbounds nuw i8, ptr %0, i64 256
  store i64 0, ptr %10, align 8, !tbaa !16
  %11 = load ptr, ptr %9, align 8, !tbaa !9
  store i8 0, ptr %11, align 1, !tbaa !17
  %12 = getelementptr inbounds nuw i8, ptr %0, i64 280
  %13 = getelementptr inbounds nuw i8, ptr %0, i64 288
  store i64 0, ptr %13, align 8, !tbaa !16
  %14 = load ptr, ptr %12, align 8, !tbaa !9
  store i8 0, ptr %14, align 1, !tbaa !17
  %15 = getelementptr inbounds nuw i8, ptr %0, i64 312
  %16 = getelementptr inbounds nuw i8, ptr %0, i64 320
  %17 = load i64, ptr %16, align 8, !tbaa !16
  %18 = tail call noundef nonnull align 8 dereferenceable(32) ptr @_ZNSt7__cxx1112basic_stringIcSt11char_traitsIcESaIcEE10_M_replaceEmmPKcm(ptr noundef nonnull align 8 dereferenceable(32) %15, i64 noundef 0, i64 noundef %17, ptr noundef nonnull @.str.51, i64 noundef 9)
  %19 = getelementptr inbounds nuw i8, ptr %0, i64 344
  store i8 1, ptr %19, align 8, !tbaa !20
  %20 = getelementptr inbounds nuw i8, ptr %0, i64 345
  %21 = getelementptr inbounds nuw i8, ptr %0, i64 352
  tail call void @llvm.memset.p0.i64(ptr noundef nonnull align 1 dereferenceable(7) %20, i8 0, i64 7, i1 false)
  store i8 1, ptr %21, align 8, !tbaa !28
  %22 = getelementptr inbounds nuw i8, ptr %0, i64 353
  store i8 0, ptr %22, align 1, !tbaa !29
  %23 = getelementptr inbounds nuw i8, ptr %0, i64 356
  store i32 4, ptr %23, align 4, !tbaa !30
  %24 = getelementptr inbounds nuw i8, ptr %0, i64 354
  store i8 0, ptr %24, align 2, !tbaa !31
  %25 = getelementptr inbounds nuw i8, ptr %0, i64 360
  store i8 0, ptr %25, align 8, !tbaa !32
  %26 = getelementptr inbounds nuw i8, ptr %0, i64 361
  store i8 0, ptr %26, align 1, !tbaa !33
  ret void
}